target datalayout = "e-m:e-p270:32:32-p271:32:32-p272:64:64-i64:64-i128:128-f80:128-n8:16:32:64-S128"
target triple = "x86_64-pc-linux-gnu"

%struct.qemu_plugin_u64 = type { ptr, i64 }
%struct._GString = type { ptr, i64, i64 }
%struct.qemu_info_t = type { ptr, %struct.anon, i8, %union.anon }
%struct.anon = type { i32, i32 }
%union.anon = type { %struct.anon.0 }
%struct.anon.0 = type { i32, i32 }

@.str = private unnamed_addr constant [1 x i8] zeroinitializer, align 1
@.str.1 = private unnamed_addr constant [2 x i8] c"=\00", align 1
@.str.2 = private unnamed_addr constant [6 x i8] c"track\00", align 1
@.str.3 = private unnamed_addr constant [5 x i8] c"read\00", align 1
@rw = internal global i32 3, align 4
@.str.4 = private unnamed_addr constant [6 x i8] c"write\00", align 1
@stderr = external global ptr, align 8
@.str.5 = private unnamed_addr constant [29 x i8] c"invalid value for track: %s\0A\00", align 1
@.str.6 = private unnamed_addr constant [8 x i8] c"pattern\00", align 1
@pattern = internal global i8 0, align 1
@.str.7 = private unnamed_addr constant [37 x i8] c"boolean argument parsing failed: %s\0A\00", align 1
@.str.8 = private unnamed_addr constant [7 x i8] c"source\00", align 1
@source = internal global i8 0, align 1
@.str.9 = private unnamed_addr constant [6 x i8] c"match\00", align 1
@check_match = internal global i8 0, align 1
@.str.10 = private unnamed_addr constant [4 x i8] c"%s,\00", align 1
@.str.11 = private unnamed_addr constant [27 x i8] c"option parsing failed: %s\0A\00", align 1
@.str.12 = private unnamed_addr constant [2 x i8] c",\00", align 1
@matches = internal global ptr null, align 8
@.str.13 = private unnamed_addr constant [52 x i8] c"can only currently track either source or pattern.\0A\00", align 1
@.str.14 = private unnamed_addr constant [52 x i8] c"hwprofile: plugin only useful for system emulation\0A\00", align 1
@source_pc_scoreboard = internal global ptr null, align 8
@source_pc = internal global %struct.qemu_plugin_u64 zeroinitializer, align 8
@devices = internal global ptr null, align 8

; Function Attrs: inlinehint nounwind sspstrong uwtable
define internal void @g_autoptr_cleanup_gstring_free(ptr noundef %0) #3 {
  %2 = alloca ptr, align 8
  store ptr %0, ptr %2, align 8
  %3 = load ptr, ptr %2, align 8
  %4 = icmp ne ptr %3, null
  br i1 %4, label %5, label %8

5:                                                ; preds = %1
  %6 = load ptr, ptr %2, align 8
  %7 = call ptr @g_string_free(ptr noundef %6, i32 noundef 1)
  br label %8

8:                                                ; preds = %5, %1
  ret void
}

; Function Attrs: inlinehint nounwind sspstrong uwtable
define internal void @glib_autoptr_clear_GString(ptr noundef %0) #3 {
  %2 = alloca ptr, align 8
  store ptr %0, ptr %2, align 8
  %3 = load ptr, ptr %2, align 8
  %4 = icmp ne ptr %3, null
  br i1 %4, label %5, label %7

5:                                                ; preds = %1
  %6 = load ptr, ptr %2, align 8
  call void @g_autoptr_cleanup_gstring_free(ptr noundef %6)
  br label %7

7:                                                ; preds = %5, %1
  ret void
}

; Function Attrs: inlinehint nounwind sspstrong uwtable
define internal void @glib_autoptr_cleanup_GString(ptr noundef %0) #3 {
  %2 = alloca ptr, align 8
  store ptr %0, ptr %2, align 8
  %3 = load ptr, ptr %2, align 8
  %4 = load ptr, ptr %3, align 8
  call void @glib_autoptr_clear_GString(ptr noundef %4)
  ret void
}

; Function Attrs: nounwind sspstrong uwtable
define internal void @plugin_init() #0 {
  %1 = call ptr @g_hash_table_new(ptr noundef null, ptr noundef null)
  store ptr %1, ptr @devices, align 8
  ret void
}

; Function Attrs: inlinehint nounwind sspstrong uwtable
define internal void @glib_auto_cleanup_GStrv(ptr noundef %0) #3 {
  %2 = alloca ptr, align 8
  store ptr %0, ptr %2, align 8
  %3 = load ptr, ptr %2, align 8
  %4 = load ptr, ptr %3, align 8
  %5 = icmp ne ptr %4, null
  br i1 %5, label %6, label %9

6:                                                ; preds = %1
  %7 = load ptr, ptr %2, align 8
  %8 = load ptr, ptr %7, align 8
  call void @g_strfreev(ptr noundef %8)
  br label %9

9:                                                ; preds = %6, %1
  ret void
}

; Function Attrs: nounwind sspstrong uwtable
define i32 @qemu_plugin_install(i64 noundef %0, ptr noundef %1, i32 noundef %2, ptr noundef %3) #0 {
  %5 = alloca i32, align 4
  %6 = alloca i64, align 8
  %7 = alloca ptr, align 8
  %8 = alloca i32, align 4
  %9 = alloca ptr, align 8
  %10 = alloca i32, align 4
  %11 = alloca ptr, align 8
  %12 = alloca ptr, align 8
  %13 = alloca ptr, align 8
  %14 = alloca i32, align 4
  %15 = alloca %struct.qemu_plugin_u64, align 8
  store i64 %0, ptr %6, align 8
  store ptr %1, ptr %7, align 8
  store i32 %2, ptr %8, align 4
  store ptr %3, ptr %9, align 8
  call void @llvm.lifetime.start.p0(i64 4, ptr %10) #9
  store i32 0, ptr %10, align 4, !annotation !3
  call void @llvm.lifetime.start.p0(i64 8, ptr %11) #9
  %16 = call ptr @g_string_new(ptr noundef @.str)
  store ptr %16, ptr %11, align 8
  store i32 0, ptr %10, align 4
  br label %17

17:                                               ; preds = %116, %4
  %18 = load i32, ptr %10, align 4
  %19 = load i32, ptr %8, align 4
  %20 = icmp slt i32 %18, %19
  br i1 %20, label %21, label %119

21:                                               ; preds = %17
  call void @llvm.lifetime.start.p0(i64 8, ptr %12) #9
  %22 = load ptr, ptr %9, align 8
  %23 = load i32, ptr %10, align 4
  %24 = sext i32 %23 to i64
  %25 = getelementptr inbounds ptr, ptr %22, i64 %24
  %26 = load ptr, ptr %25, align 8
  store ptr %26, ptr %12, align 8
  call void @llvm.lifetime.start.p0(i64 8, ptr %13) #9
  %27 = load ptr, ptr %12, align 8
  %28 = call ptr @g_strsplit(ptr noundef %27, ptr noundef @.str.1, i32 noundef 2)
  store ptr %28, ptr %13, align 8
  %29 = load ptr, ptr %13, align 8
  %30 = getelementptr inbounds ptr, ptr %29, i64 0
  %31 = load ptr, ptr %30, align 8
  %32 = call i32 @g_strcmp0(ptr noundef %31, ptr noundef @.str.2)
  %33 = icmp eq i32 %32, 0
  br i1 %33, label %34, label %56

34:                                               ; preds = %21
  %35 = load ptr, ptr %13, align 8
  %36 = getelementptr inbounds ptr, ptr %35, i64 1
  %37 = load ptr, ptr %36, align 8
  %38 = call i32 @g_strcmp0(ptr noundef %37, ptr noundef @.str.3)
  %39 = icmp eq i32 %38, 0
  br i1 %39, label %40, label %41

40:                                               ; preds = %34
  store i32 1, ptr @rw, align 4
  br label %55

41:                                               ; preds = %34
  %42 = load ptr, ptr %13, align 8
  %43 = getelementptr inbounds ptr, ptr %42, i64 1
  %44 = load ptr, ptr %43, align 8
  %45 = call i32 @g_strcmp0(ptr noundef %44, ptr noundef @.str.4)
  %46 = icmp eq i32 %45, 0
  br i1 %46, label %47, label %48

47:                                               ; preds = %41
  store i32 2, ptr @rw, align 4
  br label %54

48:                                               ; preds = %41
  %49 = load ptr, ptr @stderr, align 8
  %50 = load ptr, ptr %13, align 8
  %51 = getelementptr inbounds ptr, ptr %50, i64 1
  %52 = load ptr, ptr %51, align 8
  %53 = call i32 (ptr, ptr, ...) @fprintf(ptr noundef %49, ptr noundef @.str.5, ptr noundef %52) #9
  store i32 -1, ptr %5, align 4
  store i32 1, ptr %14, align 4
  br label %113

54:                                               ; preds = %47
  br label %55

55:                                               ; preds = %54, %40
  br label %112

56:                                               ; preds = %21
  %57 = load ptr, ptr %13, align 8
  %58 = getelementptr inbounds ptr, ptr %57, i64 0
  %59 = load ptr, ptr %58, align 8
  %60 = call i32 @g_strcmp0(ptr noundef %59, ptr noundef @.str.6)
  %61 = icmp eq i32 %60, 0
  br i1 %61, label %62, label %75

62:                                               ; preds = %56
  %63 = load ptr, ptr %13, align 8
  %64 = getelementptr inbounds ptr, ptr %63, i64 0
  %65 = load ptr, ptr %64, align 8
  %66 = load ptr, ptr %13, align 8
  %67 = getelementptr inbounds ptr, ptr %66, i64 1
  %68 = load ptr, ptr %67, align 8
  %69 = call zeroext i1 @qemu_plugin_bool_parse(ptr noundef %65, ptr noundef %68, ptr noundef @pattern)
  br i1 %69, label %74, label %70

70:                                               ; preds = %62
  %71 = load ptr, ptr @stderr, align 8
  %72 = load ptr, ptr %12, align 8
  %73 = call i32 (ptr, ptr, ...) @fprintf(ptr noundef %71, ptr noundef @.str.7, ptr noundef %72) #9
  store i32 -1, ptr %5, align 4
  store i32 1, ptr %14, align 4
  br label %113

74:                                               ; preds = %62
  br label %111

75:                                               ; preds = %56
  %76 = load ptr, ptr %13, align 8
  %77 = getelementptr inbounds ptr, ptr %76, i64 0
  %78 = load ptr, ptr %77, align 8
  %79 = call i32 @g_strcmp0(ptr noundef %78, ptr noundef @.str.8)
  %80 = icmp eq i32 %79, 0
  br i1 %80, label %81, label %94

81:                                               ; preds = %75
  %82 = load ptr, ptr %13, align 8
  %83 = getelementptr inbounds ptr, ptr %82, i64 0
  %84 = load ptr, ptr %83, align 8
  %85 = load ptr, ptr %13, align 8
  %86 = getelementptr inbounds ptr, ptr %85, i64 1
  %87 = load ptr, ptr %86, align 8
  %88 = call zeroext i1 @qemu_plugin_bool_parse(ptr noundef %84, ptr noundef %87, ptr noundef @source)
  br i1 %88, label %93, label %89

89:                                               ; preds = %81
  %90 = load ptr, ptr @stderr, align 8
  %91 = load ptr, ptr %12, align 8
  %92 = call i32 (ptr, ptr, ...) @fprintf(ptr noundef %90, ptr noundef @.str.7, ptr noundef %91) #9
  store i32 -1, ptr %5, align 4
  store i32 1, ptr %14, align 4
  br label %113

93:                                               ; preds = %81
  br label %110

94:                                               ; preds = %75
  %95 = load ptr, ptr %13, align 8
  %96 = getelementptr inbounds ptr, ptr %95, i64 0
  %97 = load ptr, ptr %96, align 8
  %98 = call i32 @g_strcmp0(ptr noundef %97, ptr noundef @.str.9)
  %99 = icmp eq i32 %98, 0
  br i1 %99, label %100, label %105

100:                                              ; preds = %94
  store i8 1, ptr @check_match, align 1
  %101 = load ptr, ptr %11, align 8
  %102 = load ptr, ptr %13, align 8
  %103 = getelementptr inbounds ptr, ptr %102, i64 1
  %104 = load ptr, ptr %103, align 8
  call void (ptr, ptr, ...) @g_string_append_printf(ptr noundef %101, ptr noundef @.str.10, ptr noundef %104)
  br label %109

105:                                              ; preds = %94
  %106 = load ptr, ptr @stderr, align 8
  %107 = load ptr, ptr %12, align 8
  %108 = call i32 (ptr, ptr, ...) @fprintf(ptr noundef %106, ptr noundef @.str.11, ptr noundef %107) #9
  store i32 -1, ptr %5, align 4
  store i32 1, ptr %14, align 4
  br label %113

109:                                              ; preds = %100
  br label %110

110:                                              ; preds = %109, %93
  br label %111

111:                                              ; preds = %110, %74
  br label %112

112:                                              ; preds = %111, %55
  store i32 0, ptr %14, align 4
  br label %113

113:                                              ; preds = %112, %105, %89, %70, %48
  call void @glib_auto_cleanup_GStrv(ptr noundef %13)
  call void @llvm.lifetime.end.p0(i64 8, ptr %13) #9
  call void @llvm.lifetime.end.p0(i64 8, ptr %12) #9
  %114 = load i32, ptr %14, align 4
  switch i32 %114, label %155 [
    i32 0, label %115
  ]

115:                                              ; preds = %113
  br label %116

116:                                              ; preds = %115
  %117 = load i32, ptr %10, align 4
  %118 = add i32 %117, 1
  store i32 %118, ptr %10, align 4
  br label %17, !llvm.loop !4

119:                                              ; preds = %17
  %120 = load i8, ptr @check_match, align 1, !range !6, !noundef !7
  %121 = trunc i8 %120 to i1
  br i1 %121, label %122, label %127

122:                                              ; preds = %119
  %123 = load ptr, ptr %11, align 8
  %124 = getelementptr inbounds nuw %struct._GString, ptr %123, i32 0, i32 0
  %125 = load ptr, ptr %124, align 8
  %126 = call ptr @g_strsplit(ptr noundef %125, ptr noundef @.str.12, i32 noundef -1)
  store ptr %126, ptr @matches, align 8
  br label %127

127:                                              ; preds = %122, %119
  %128 = load i8, ptr @source, align 1, !range !6, !noundef !7
  %129 = trunc i8 %128 to i1
  br i1 %129, label %130, label %136

130:                                              ; preds = %127
  %131 = load i8, ptr @pattern, align 1, !range !6, !noundef !7
  %132 = trunc i8 %131 to i1
  br i1 %132, label %133, label %136

133:                                              ; preds = %130
  %134 = load ptr, ptr @stderr, align 8
  %135 = call i32 (ptr, ptr, ...) @fprintf(ptr noundef %134, ptr noundef @.str.13) #9
  store i32 -1, ptr %5, align 4
  store i32 1, ptr %14, align 4
  br label %155

136:                                              ; preds = %130, %127
  %137 = load ptr, ptr %7, align 8
  %138 = getelementptr inbounds nuw %struct.qemu_info_t, ptr %137, i32 0, i32 2
  %139 = load i8, ptr %138, align 8, !range !6, !noundef !7
  %140 = trunc i8 %139 to i1
  br i1 %140, label %144, label %141

141:                                              ; preds = %136
  %142 = load ptr, ptr @stderr, align 8
  %143 = call i32 (ptr, ptr, ...) @fprintf(ptr noundef %142, ptr noundef @.str.14) #9
  store i32 -1, ptr %5, align 4
  store i32 1, ptr %14, align 4
  br label %155

144:                                              ; preds = %136
  %145 = load i8, ptr @source, align 1, !range !6, !noundef !7
  %146 = trunc i8 %145 to i1
  br i1 %146, label %147, label %152

147:                                              ; preds = %144
  %148 = call ptr @qemu_plugin_scoreboard_new(i64 noundef 8)
  store ptr %148, ptr @source_pc_scoreboard, align 8
  %149 = getelementptr inbounds nuw %struct.qemu_plugin_u64, ptr %15, i32 0, i32 0
  %150 = load ptr, ptr @source_pc_scoreboard, align 8
  store ptr %150, ptr %149, align 8
  %151 = getelementptr inbounds nuw %struct.qemu_plugin_u64, ptr %15, i32 0, i32 1
  store i64 0, ptr %151, align 8
  call void @llvm.memcpy.p0.p0.i64(ptr align 8 @source_pc, ptr align 8 %15, i64 16, i1 false)
  br label %152

152:                                              ; preds = %147, %144
  call void @plugin_init()
  %153 = load i64, ptr %6, align 8
  call void @qemu_plugin_register_vcpu_tb_trans_cb(i64 noundef %153, ptr noundef @vcpu_tb_trans)
  %154 = load i64, ptr %6, align 8
  call void @qemu_plugin_register_atexit_cb(i64 noundef %154, ptr noundef @plugin_exit, ptr noundef null)
  store i32 0, ptr %5, align 4
  store i32 1, ptr %14, align 4
  br label %155

155:                                              ; preds = %152, %141, %133, %113
  call void @glib_autoptr_cleanup_GString(ptr noundef %11)
  call void @llvm.lifetime.end.p0(i64 8, ptr %11) #9
  call void @llvm.lifetime.end.p0(i64 4, ptr %10) #9
  %156 = load i32, ptr %5, align 4
  ret i32 %156
}