; Function Attrs: nounwind sspstrong uwtable
define range(i32 -1, 1) i32 @qemu_plugin_install(i64 noundef %0, ptr noundef readonly captures(none) %1, i32 noundef %2, ptr noundef readonly captures(none) %3) local_unnamed_addr #0 {
  %5 = tail call ptr @g_string_new(ptr noundef nonnull @.str) #7
  %6 = icmp sgt i32 %2, 0
  br i1 %6, label %.lr.ph.preheader, label %._crit_edge

.lr.ph.preheader:                                 ; preds = %4
  %wide.trip.count = zext nneg i32 %2 to i64
  br label %.lr.ph

.lr.ph:                                           ; preds = %.lr.ph.preheader, %glib_auto_cleanup_GStrv.exit
  %indvars.iv = phi i64 [ 0, %.lr.ph.preheader ], [ %indvars.iv.next, %glib_auto_cleanup_GStrv.exit ]
  %7 = getelementptr inbounds nuw ptr, ptr %3, i64 %indvars.iv
  %8 = load ptr, ptr %7, align 8
  %9 = tail call ptr @g_strsplit(ptr noundef %8, ptr noundef nonnull @.str.1, i32 noundef 2) #7
  %10 = load ptr, ptr %9, align 8
  %11 = tail call i32 @g_strcmp0(ptr noundef %10, ptr noundef nonnull @.str.2) #7
  %12 = icmp eq i32 %11, 0
  br i1 %12, label %13, label %28

13:                                               ; preds = %.lr.ph
  %14 = getelementptr inbounds nuw i8, ptr %9, i64 8
  %15 = load ptr, ptr %14, align 8
  %16 = tail call i32 @g_strcmp0(ptr noundef %15, ptr noundef nonnull @.str.3) #7
  %17 = icmp eq i32 %16, 0
  br i1 %17, label %18, label %19

18:                                               ; preds = %13
  store i32 1, ptr @rw, align 4
  br label %glib_auto_cleanup_GStrv.exit

19:                                               ; preds = %13
  %20 = load ptr, ptr %14, align 8
  %21 = tail call i32 @g_strcmp0(ptr noundef %20, ptr noundef nonnull @.str.4) #7
  %22 = icmp eq i32 %21, 0
  br i1 %22, label %23, label %24

23:                                               ; preds = %19
  store i32 2, ptr @rw, align 4
  br label %glib_auto_cleanup_GStrv.exit

24:                                               ; preds = %19
  %25 = load ptr, ptr @stderr, align 8
  %26 = load ptr, ptr %14, align 8
  %27 = tail call i32 (ptr, ptr, ...) @fprintf(ptr noundef %25, ptr noundef nonnull @.str.5, ptr noundef %26) #8
  br label %glib_auto_cleanup_GStrv.exit19

28:                                               ; preds = %.lr.ph
  %29 = load ptr, ptr %9, align 8
  %30 = tail call i32 @g_strcmp0(ptr noundef %29, ptr noundef nonnull @.str.6) #7
  %31 = icmp eq i32 %30, 0
  %32 = load ptr, ptr %9, align 8
  br i1 %31, label %33, label %40

33:                                               ; preds = %28
  %34 = getelementptr inbounds nuw i8, ptr %9, i64 8
  %35 = load ptr, ptr %34, align 8
  %36 = tail call zeroext i1 @qemu_plugin_bool_parse(ptr noundef %32, ptr noundef %35, ptr noundef nonnull @pattern) #7
  br i1 %36, label %glib_auto_cleanup_GStrv.exit, label %37

37:                                               ; preds = %33
  %38 = load ptr, ptr @stderr, align 8
  %39 = tail call i32 (ptr, ptr, ...) @fprintf(ptr noundef %38, ptr noundef nonnull @.str.7, ptr noundef %8) #8
  br label %glib_auto_cleanup_GStrv.exit19

40:                                               ; preds = %28
  %41 = tail call i32 @g_strcmp0(ptr noundef %32, ptr noundef nonnull @.str.8) #7
  %42 = icmp eq i32 %41, 0
  %43 = load ptr, ptr %9, align 8
  br i1 %42, label %44, label %51

44:                                               ; preds = %40
  %45 = getelementptr inbounds nuw i8, ptr %9, i64 8
  %46 = load ptr, ptr %45, align 8
  %47 = tail call zeroext i1 @qemu_plugin_bool_parse(ptr noundef %43, ptr noundef %46, ptr noundef nonnull @source) #7
  br i1 %47, label %glib_auto_cleanup_GStrv.exit, label %48

48:                                               ; preds = %44
  %49 = load ptr, ptr @stderr, align 8
  %50 = tail call i32 (ptr, ptr, ...) @fprintf(ptr noundef %49, ptr noundef nonnull @.str.7, ptr noundef %8) #8
  br label %glib_auto_cleanup_GStrv.exit19

51:                                               ; preds = %40
  %52 = tail call i32 @g_strcmp0(ptr noundef %43, ptr noundef nonnull @.str.9) #7
  %53 = icmp eq i32 %52, 0
  br i1 %53, label %54, label %57

54:                                               ; preds = %51
  store i1 true, ptr @check_match, align 1
  %55 = getelementptr inbounds nuw i8, ptr %9, i64 8
  %56 = load ptr, ptr %55, align 8
  tail call void (ptr, ptr, ...) @g_string_append_printf(ptr noundef %5, ptr noundef nonnull @.str.10, ptr noundef %56) #7
  br label %glib_auto_cleanup_GStrv.exit

57:                                               ; preds = %51
  %58 = load ptr, ptr @stderr, align 8
  %59 = tail call i32 (ptr, ptr, ...) @fprintf(ptr noundef %58, ptr noundef nonnull @.str.11, ptr noundef %8) #8
  br label %glib_auto_cleanup_GStrv.exit19

glib_auto_cleanup_GStrv.exit:                     ; preds = %23, %18, %54, %44, %33
  tail call void @g_strfreev(ptr noundef nonnull %9) #7
  %indvars.iv.next = add nuw nsw i64 %indvars.iv, 1
  %exitcond.not = icmp eq i64 %indvars.iv.next, %wide.trip.count
  br i1 %exitcond.not, label %._crit_edge, label %.lr.ph, !llvm.loop !3

._crit_edge:                                      ; preds = %glib_auto_cleanup_GStrv.exit, %4
  %.b15 = load i1, ptr @check_match, align 1
  br i1 %.b15, label %60, label %63

60:                                               ; preds = %._crit_edge
  %61 = load ptr, ptr %5, align 8
  %62 = tail call ptr @g_strsplit(ptr noundef %61, ptr noundef nonnull @.str.12, i32 noundef -1) #7
  store ptr %62, ptr @matches, align 8
  br label %63

63:                                               ; preds = %60, %._crit_edge
  %64 = load i8, ptr @source, align 1, !range !5, !noundef !6
  %65 = trunc nuw i8 %64 to i1
  br i1 %65, label %66, label %.thread

66:                                               ; preds = %63
  %67 = load i8, ptr @pattern, align 1, !range !5, !noundef !6
  %68 = trunc nuw i8 %67 to i1
  br i1 %68, label %69, label %72

69:                                               ; preds = %66
  %70 = load ptr, ptr @stderr, align 8
  %71 = tail call i64 @fwrite(ptr nonnull @.str.13, i64 51, i64 1, ptr %70) #9
  br label %85

72:                                               ; preds = %66
  %73 = getelementptr inbounds nuw i8, ptr %1, i64 16
  %74 = load i8, ptr %73, align 8, !range !5, !noundef !6
  %75 = trunc nuw i8 %74 to i1
  br i1 %75, label %82, label %79

.thread:                                          ; preds = %63
  %76 = getelementptr inbounds nuw i8, ptr %1, i64 16
  %77 = load i8, ptr %76, align 8, !range !5, !noundef !6
  %78 = trunc nuw i8 %77 to i1
  br i1 %78, label %.thread30, label %79

79:                                               ; preds = %.thread, %72
  %80 = load ptr, ptr @stderr, align 8
  %81 = tail call i64 @fwrite(ptr nonnull @.str.14, i64 51, i64 1, ptr %80) #9
  br label %85

82:                                               ; preds = %72
  %83 = tail call ptr @qemu_plugin_scoreboard_new(i64 noundef 8) #7
  store ptr %83, ptr @source_pc_scoreboard, align 8
  store ptr %83, ptr @source_pc.0, align 8
  br label %.thread30

.thread30:                                        ; preds = %.thread, %82
  %84 = tail call ptr @g_hash_table_new(ptr noundef null, ptr noundef null) #7
  store ptr %84, ptr @devices, align 8
  tail call void @qemu_plugin_register_vcpu_tb_trans_cb(i64 noundef %0, ptr noundef nonnull @vcpu_tb_trans) #7
  tail call void @qemu_plugin_register_atexit_cb(i64 noundef %0, ptr noundef nonnull @plugin_exit, ptr noundef null) #7
  br label %85

glib_auto_cleanup_GStrv.exit19:                   ; preds = %57, %48, %37, %24
  tail call void @g_strfreev(ptr noundef nonnull %9) #7
  br label %85

85:                                               ; preds = %glib_auto_cleanup_GStrv.exit19, %.thread30, %79, %69
  %.2 = phi i32 [ -1, %69 ], [ 0, %.thread30 ], [ -1, %79 ], [ -1, %glib_auto_cleanup_GStrv.exit19 ]
  %.not.i.i = icmp eq ptr %5, null
  br i1 %.not.i.i, label %glib_autoptr_cleanup_GString.exit, label %86

86:                                               ; preds = %85
  %87 = tail call ptr @g_string_free(ptr noundef nonnull %5, i32 noundef 1) #7
  br label %glib_autoptr_cleanup_GString.exit

glib_autoptr_cleanup_GString.exit:                ; preds = %85, %86
  ret i32 %.2
}